; Function Attrs: mustprogress uwtable
define void @_ZNK5Ipopt14IteratesVector21MakeNewIteratesVectorEb(ptr dead_on_unwind noalias nocapture writable writeonly sret(%"class.Ipopt::SmartPtr.15") align 8 %0, ptr nocapture noundef nonnull readonly align 8 dereferenceable(280) %1, i1 noundef zeroext %2) local_unnamed_addr #0 align 2 {
  %4 = getelementptr inbounds i8, ptr %1, i64 272
  %5 = load ptr, ptr %4, align 8
  %6 = load ptr, ptr %5, align 8
  %7 = getelementptr inbounds i8, ptr %6, i64 40
  %8 = load ptr, ptr %7, align 8
  %9 = tail call noundef ptr %8(ptr noundef nonnull align 8 dereferenceable(112) %5, i1 noundef zeroext %2)
  %.not.i.i = icmp eq ptr %9, null
  br i1 %.not.i.i, label %_ZN5Ipopt8SmartPtrINS_14IteratesVectorEEC2EPS1_.exit, label %10

10:                                               ; preds = %3
  %11 = getelementptr inbounds i8, ptr %9, i64 8
  %12 = load i32, ptr %11, align 8
  %13 = add nsw i32 %12, 1
  store i32 %13, ptr %11, align 8
  br label %_ZN5Ipopt8SmartPtrINS_14IteratesVectorEEC2EPS1_.exit

_ZN5Ipopt8SmartPtrINS_14IteratesVectorEEC2EPS1_.exit: ; preds = %10, %3
  store ptr %9, ptr %0, align 8
  ret void
}